target datalayout = "e-m:e-p270:32:32-p271:32:32-p272:64:64-i64:64-i128:128-f80:128-n8:16:32:64-S128"
target triple = "x86_64-pc-linux-gnu"

%struct.slurm_select_ops_t = type { ptr, ptr, ptr, ptr, ptr, ptr, ptr, ptr, ptr, ptr, ptr, ptr, ptr, ptr, ptr, ptr, ptr, ptr, ptr, ptr, ptr, ptr, ptr, ptr, ptr, ptr, ptr, ptr, ptr, ptr, ptr, ptr }
%struct.dynamic_plugin_data = type { ptr, i32 }

@.str.6 = private unnamed_addr constant [9 x i8] c"select.c\00", align 1
@ops = internal global ptr null, align 8
@select_context_default = internal global i32 -1, align 4
@__func__.select_g_select_jobinfo_alloc = private unnamed_addr constant [30 x i8] c"select_g_select_jobinfo_alloc\00", align 1

; Function Attrs: nounwind uwtable
define dso_local ptr @select_g_select_jobinfo_alloc() #0 {
  %1 = alloca ptr, align 8
  call void @llvm.lifetime.start.p0(i64 8, ptr %1) #7
  store ptr null, ptr %1, align 8
  %2 = call ptr @slurm_xcalloc(i64 noundef 1, i64 noundef 16, i1 noundef zeroext true, i1 noundef zeroext false, ptr noundef @.str.6, i32 noundef 834, ptr noundef @__func__.select_g_select_jobinfo_alloc)
  store ptr %2, ptr %1, align 8
  %3 = load i32, ptr @select_context_default, align 4
  %4 = load ptr, ptr %1, align 8
  %5 = getelementptr inbounds nuw %struct.dynamic_plugin_data, ptr %4, i32 0, i32 1
  store i32 %3, ptr %5, align 8
  %6 = load ptr, ptr @ops, align 8
  %7 = load i32, ptr @select_context_default, align 4
  %8 = sext i32 %7 to i64
  %9 = getelementptr inbounds %struct.slurm_select_ops_t, ptr %6, i64 %8
  %10 = getelementptr inbounds nuw %struct.slurm_select_ops_t, ptr %9, i32 0, i32 23
  %11 = load ptr, ptr %10, align 8
  %12 = call ptr %11()
  %13 = load ptr, ptr %1, align 8
  %14 = getelementptr inbounds nuw %struct.dynamic_plugin_data, ptr %13, i32 0, i32 0
  store ptr %12, ptr %14, align 8
  %15 = load ptr, ptr %1, align 8
  call void @llvm.lifetime.end.p0(i64 8, ptr %1) #7
  ret ptr %15
}